target datalayout = "e-m:e-p270:32:32-p271:32:32-p272:64:64-i64:64-i128:128-f80:128-n8:16:32:64-S128"
target triple = "x86_64-unknown-linux-gnu"

%"struct.std::atomic" = type { %"struct.std::__atomic_base" }
%"struct.std::__atomic_base" = type { ptr }
%"struct.hermes::vm::sampling_profiler::(anonymous namespace)::SamplerPosix" = type { %"struct.hermes::vm::sampling_profiler::Sampler", i8, %"class.hermes::Semaphore" }
%"struct.hermes::vm::sampling_profiler::Sampler" = type { ptr, %"class.std::mutex", %"class.std::unordered_set", i8, i32, %"struct.hermes::vm::SamplingProfiler::StackTrace", %"class.std::thread", %"class.std::condition_variable" }
%"class.std::mutex" = type { %"class.std::__mutex_base" }
%"class.std::__mutex_base" = type { %union.pthread_mutex_t }
%union.pthread_mutex_t = type { %struct.__pthread_mutex_s }
%struct.__pthread_mutex_s = type { i32, i32, i32, i32, i32, i16, i16, %struct.__pthread_internal_list }
%struct.__pthread_internal_list = type { ptr, ptr }
%"class.std::unordered_set" = type { %"class.std::_Hashtable" }
%"class.std::_Hashtable" = type { ptr, i64, %"struct.std::__detail::_Hash_node_base", i64, %"struct.std::__detail::_Prime_rehash_policy", ptr }
%"struct.std::__detail::_Hash_node_base" = type { ptr }
%"struct.std::__detail::_Prime_rehash_policy" = type { float, i64 }
%"struct.hermes::vm::SamplingProfiler::StackTrace" = type { i64, %"class.std::chrono::time_point", %"class.std::vector" }
%"class.std::chrono::time_point" = type { %"class.std::chrono::duration" }
%"class.std::chrono::duration" = type { i64 }
%"class.std::vector" = type { %"struct.std::_Vector_base" }
%"struct.std::_Vector_base" = type { %"struct.std::_Vector_base<hermes::vm::SamplingProfiler::StackFrame, std::allocator<hermes::vm::SamplingProfiler::StackFrame>>::_Vector_impl" }
%"struct.std::_Vector_base<hermes::vm::SamplingProfiler::StackFrame, std::allocator<hermes::vm::SamplingProfiler::StackFrame>>::_Vector_impl" = type { %"struct.std::_Vector_base<hermes::vm::SamplingProfiler::StackFrame, std::allocator<hermes::vm::SamplingProfiler::StackFrame>>::_Vector_impl_data" }
%"struct.std::_Vector_base<hermes::vm::SamplingProfiler::StackFrame, std::allocator<hermes::vm::SamplingProfiler::StackFrame>>::_Vector_impl_data" = type { ptr, ptr, ptr }
%"class.std::thread" = type { %"class.std::thread::id" }
%"class.std::thread::id" = type { i64 }
%"class.std::condition_variable" = type { %"class.std::__condvar" }
%"class.std::__condvar" = type { %union.pthread_cond_t }
%union.pthread_cond_t = type { %struct.__pthread_cond_s }
%struct.__pthread_cond_s = type { %union.__atomic_wide_counter, %union.__atomic_wide_counter, [2 x i32], [2 x i32], i32, i32, [2 x i32] }
%union.__atomic_wide_counter = type { i64 }
%"class.hermes::Semaphore" = type { %union.sem_t }
%union.sem_t = type { i64, [24 x i8] }
%"struct.hermes::vm::sampling_profiler::(anonymous namespace)::SamplingProfilerPosix" = type { %"class.hermes::vm::SamplingProfiler", i64 }
%"class.hermes::vm::SamplingProfiler" = type { ptr, %"class.std::mutex", %"class.std::vector.5", i32, i32, %"struct.hermes::vm::SamplingProfiler::StackTrace", %"class.llvh::DenseMap", %"class.std::unordered_set.10", %"class.std::vector.30", %"class.std::vector.35", ptr }
%"class.std::vector.5" = type { %"struct.std::_Vector_base.6" }
%"struct.std::_Vector_base.6" = type { %"struct.std::_Vector_base<hermes::vm::SamplingProfiler::StackTrace, std::allocator<hermes::vm::SamplingProfiler::StackTrace>>::_Vector_impl" }
%"struct.std::_Vector_base<hermes::vm::SamplingProfiler::StackTrace, std::allocator<hermes::vm::SamplingProfiler::StackTrace>>::_Vector_impl" = type { %"struct.std::_Vector_base<hermes::vm::SamplingProfiler::StackTrace, std::allocator<hermes::vm::SamplingProfiler::StackTrace>>::_Vector_impl_data" }
%"struct.std::_Vector_base<hermes::vm::SamplingProfiler::StackTrace, std::allocator<hermes::vm::SamplingProfiler::StackTrace>>::_Vector_impl_data" = type { ptr, ptr, ptr }
%"class.llvh::DenseMap" = type <{ ptr, i32, i32, i32, [4 x i8] }>
%"class.std::unordered_set.10" = type { %"class.std::_Hashtable.11" }
%"class.std::_Hashtable.11" = type { ptr, i64, %"struct.std::__detail::_Hash_node_base", i64, %"struct.std::__detail::_Prime_rehash_policy", ptr }
%"class.std::vector.30" = type { %"struct.std::_Vector_base.31" }
%"struct.std::_Vector_base.31" = type { %"struct.std::_Vector_base<hermes::vm::Domain *, std::allocator<hermes::vm::Domain *>>::_Vector_impl" }
%"struct.std::_Vector_base<hermes::vm::Domain *, std::allocator<hermes::vm::Domain *>>::_Vector_impl" = type { %"struct.std::_Vector_base<hermes::vm::Domain *, std::allocator<hermes::vm::Domain *>>::_Vector_impl_data" }
%"struct.std::_Vector_base<hermes::vm::Domain *, std::allocator<hermes::vm::Domain *>>::_Vector_impl_data" = type { ptr, ptr, ptr }
%"class.std::vector.35" = type { %"struct.std::_Vector_base.36" }
%"struct.std::_Vector_base.36" = type { %"struct.std::_Vector_base<hermes::vm::NativeFunction *, std::allocator<hermes::vm::NativeFunction *>>::_Vector_impl" }
%"struct.std::_Vector_base<hermes::vm::NativeFunction *, std::allocator<hermes::vm::NativeFunction *>>::_Vector_impl" = type { %"struct.std::_Vector_base<hermes::vm::NativeFunction *, std::allocator<hermes::vm::NativeFunction *>>::_Vector_impl_data" }
%"struct.std::_Vector_base<hermes::vm::NativeFunction *, std::allocator<hermes::vm::NativeFunction *>>::_Vector_impl_data" = type { ptr, ptr, ptr }

@_ZN6hermes2vm17sampling_profiler12_GLOBAL__N_112SamplerPosix15profilerForSig_E = internal global %"struct.std::atomic" zeroinitializer, align 8

; Function Attrs: mustprogress nounwind uwtable
define linkonce_odr noundef i32 @_ZStanSt12memory_orderSt23__memory_order_modifier(i32 noundef %__m, i32 noundef %__mod) #0 comdat {
entry:
  %__m.addr = alloca i32, align 4
  %__mod.addr = alloca i32, align 4
  store i32 %__m, ptr %__m.addr, align 4
  store i32 %__mod, ptr %__mod.addr, align 4
  %0 = load i32, ptr %__m.addr, align 4
  %1 = load i32, ptr %__mod.addr, align 4
  %and = and i32 %0, %1
  ret i32 %and
}

; Function Attrs: mustprogress nounwind uwtable
define linkonce_odr hidden noundef ptr @_ZNKSt6atomicIPN6hermes2vm16SamplingProfilerEE4loadESt12memory_order(ptr noundef nonnull align 8 dereferenceable(8) %this, i32 noundef %__m) #0 comdat align 2 {
entry:
  %this.addr.i = alloca ptr, align 8
  %__m.addr.i = alloca i32, align 4
  %__b.i = alloca i32, align 4
  %atomic-temp.i = alloca ptr, align 8
  %this.addr = alloca ptr, align 8
  %__m.addr = alloca i32, align 4
  store ptr %this, ptr %this.addr, align 8
  store i32 %__m, ptr %__m.addr, align 4
  %this1 = load ptr, ptr %this.addr, align 8
  %_M_b = getelementptr inbounds %"struct.std::atomic", ptr %this1, i32 0, i32 0
  %0 = load i32, ptr %__m.addr, align 4
  store ptr %_M_b, ptr %this.addr.i, align 8
  store i32 %0, ptr %__m.addr.i, align 4
  %this1.i = load ptr, ptr %this.addr.i, align 8
  %1 = load i32, ptr %__m.addr.i, align 4
  %call.i = call noundef i32 @_ZStanSt12memory_orderSt23__memory_order_modifier(i32 noundef %1, i32 noundef 65535)
  store i32 %call.i, ptr %__b.i, align 4
  %2 = load i32, ptr %__m.addr.i, align 4
  switch i32 %2, label %monotonic.i [
    i32 1, label %acquire.i
    i32 2, label %acquire.i
    i32 5, label %seqcst.i
  ]

monotonic.i:                                      ; preds = %entry
  %3 = load atomic i64, ptr %this1.i monotonic, align 8
  store i64 %3, ptr %atomic-temp.i, align 8
  br label %_ZNKSt13__atomic_baseIPN6hermes2vm16SamplingProfilerEE4loadESt12memory_order.exit

acquire.i:                                        ; preds = %entry, %entry
  %4 = load atomic i64, ptr %this1.i acquire, align 8
  store i64 %4, ptr %atomic-temp.i, align 8
  br label %_ZNKSt13__atomic_baseIPN6hermes2vm16SamplingProfilerEE4loadESt12memory_order.exit

seqcst.i:                                         ; preds = %entry
  %5 = load atomic i64, ptr %this1.i seq_cst, align 8
  store i64 %5, ptr %atomic-temp.i, align 8
  br label %_ZNKSt13__atomic_baseIPN6hermes2vm16SamplingProfilerEE4loadESt12memory_order.exit

_ZNKSt13__atomic_baseIPN6hermes2vm16SamplingProfilerEE4loadESt12memory_order.exit: ; preds = %seqcst.i, %acquire.i, %monotonic.i
  %6 = load ptr, ptr %atomic-temp.i, align 8
  ret ptr %6
}

; Function Attrs: mustprogress nounwind uwtable
define linkonce_odr hidden void @_ZNSt6atomicIPN6hermes2vm16SamplingProfilerEE5storeES3_St12memory_order(ptr noundef nonnull align 8 dereferenceable(8) %this, ptr noundef %__p, i32 noundef %__m) #0 comdat align 2 {
entry:
  %this.addr.i = alloca ptr, align 8
  %__p.addr.i = alloca ptr, align 8
  %__m.addr.i = alloca i32, align 4
  %__b.i = alloca i32, align 4
  %.atomictmp.i = alloca ptr, align 8
  %this.addr = alloca ptr, align 8
  %__p.addr = alloca ptr, align 8
  %__m.addr = alloca i32, align 4
  store ptr %this, ptr %this.addr, align 8
  store ptr %__p, ptr %__p.addr, align 8
  store i32 %__m, ptr %__m.addr, align 4
  %this1 = load ptr, ptr %this.addr, align 8
  %_M_b = getelementptr inbounds %"struct.std::atomic", ptr %this1, i32 0, i32 0
  %0 = load ptr, ptr %__p.addr, align 8
  %1 = load i32, ptr %__m.addr, align 4
  store ptr %_M_b, ptr %this.addr.i, align 8
  store ptr %0, ptr %__p.addr.i, align 8
  store i32 %1, ptr %__m.addr.i, align 4
  %this1.i = load ptr, ptr %this.addr.i, align 8
  %2 = load i32, ptr %__m.addr.i, align 4
  %call.i = call noundef i32 @_ZStanSt12memory_orderSt23__memory_order_modifier(i32 noundef %2, i32 noundef 65535)
  store i32 %call.i, ptr %__b.i, align 4
  %3 = load i32, ptr %__m.addr.i, align 4
  %4 = load ptr, ptr %__p.addr.i, align 8
  store ptr %4, ptr %.atomictmp.i, align 8
  switch i32 %3, label %monotonic.i [
    i32 3, label %release.i
    i32 5, label %seqcst.i
  ]

monotonic.i:                                      ; preds = %entry
  %5 = load i64, ptr %.atomictmp.i, align 8
  store atomic i64 %5, ptr %this1.i monotonic, align 8
  br label %_ZNSt13__atomic_baseIPN6hermes2vm16SamplingProfilerEE5storeES3_St12memory_order.exit

release.i:                                        ; preds = %entry
  %6 = load i64, ptr %.atomictmp.i, align 8
  store atomic i64 %6, ptr %this1.i release, align 8
  br label %_ZNSt13__atomic_baseIPN6hermes2vm16SamplingProfilerEE5storeES3_St12memory_order.exit

seqcst.i:                                         ; preds = %entry
  %7 = load i64, ptr %.atomictmp.i, align 8
  store atomic i64 %7, ptr %this1.i seq_cst, align 8
  br label %_ZNSt13__atomic_baseIPN6hermes2vm16SamplingProfilerEE5storeES3_St12memory_order.exit

_ZNSt13__atomic_baseIPN6hermes2vm16SamplingProfilerEE5storeES3_St12memory_order.exit: ; preds = %seqcst.i, %release.i, %monotonic.i
  ret void
}

; Function Attrs: mustprogress nounwind uwtable
define hidden noundef zeroext i1 @_ZN6hermes2vm17sampling_profiler7Sampler29platformSuspendVMAndWalkStackEPNS0_16SamplingProfilerE(ptr noundef nonnull align 8 dereferenceable(208) %this, ptr noundef %profiler) #0 align 2 {
entry:
  %retval = alloca i1, align 1
  %this.addr = alloca ptr, align 8
  %profiler.addr = alloca ptr, align 8
  %self = alloca ptr, align 8
  %posixProfiler = alloca ptr, align 8
  store ptr %this, ptr %this.addr, align 8
  store ptr %profiler, ptr %profiler.addr, align 8
  %this1 = load ptr, ptr %this.addr, align 8
  store ptr %this1, ptr %self, align 8
  %0 = load ptr, ptr %profiler.addr, align 8
  store ptr %0, ptr %posixProfiler, align 8
  %1 = load ptr, ptr %profiler.addr, align 8
  call void @_ZNSt6atomicIPN6hermes2vm16SamplingProfilerEE5storeES3_St12memory_order(ptr noundef nonnull align 8 dereferenceable(8) @_ZN6hermes2vm17sampling_profiler12_GLOBAL__N_112SamplerPosix15profilerForSig_E, ptr noundef %1, i32 noundef 3) #1
  %2 = load ptr, ptr %posixProfiler, align 8
  %currentThread_ = getelementptr inbounds %"struct.hermes::vm::sampling_profiler::(anonymous namespace)::SamplingProfilerPosix", ptr %2, i32 0, i32 1
  %3 = load i64, ptr %currentThread_, align 8
  %call = call i32 @pthread_kill(i64 noundef %3, i32 noundef 27) #1
  %4 = load ptr, ptr %self, align 8
  %samplingDoneSem_ = getelementptr inbounds %"struct.hermes::vm::sampling_profiler::(anonymous namespace)::SamplerPosix", ptr %4, i32 0, i32 2
  %call2 = call noundef zeroext i1 @_ZN6hermes9Semaphore4waitEv(ptr noundef nonnull align 8 dereferenceable(32) %samplingDoneSem_)
  br i1 %call2, label %if.end, label %if.then

if.then:                                          ; preds = %entry
  store i1 false, ptr %retval, align 1
  br label %return

if.end:                                           ; preds = %entry
  br label %while.cond

while.cond:                                       ; preds = %while.body, %if.end
  %call3 = call noundef ptr @_ZNKSt6atomicIPN6hermes2vm16SamplingProfilerEE4loadESt12memory_order(ptr noundef nonnull align 8 dereferenceable(8) @_ZN6hermes2vm17sampling_profiler12_GLOBAL__N_112SamplerPosix15profilerForSig_E, i32 noundef 2) #1
  %cmp = icmp ne ptr %call3, null
  br i1 %cmp, label %while.body, label %while.end

while.body:                                       ; preds = %while.cond
  br label %while.cond, !llvm.loop !5

while.end:                                        ; preds = %while.cond
  store i1 true, ptr %retval, align 1
  br label %return

return:                                           ; preds = %while.end, %if.then
  %5 = load i1, ptr %retval, align 1
  ret i1 %5
}