; Function Attrs: mustprogress nounwind uwtable
define hidden noundef zeroext i1 @_ZN6hermes2vm17sampling_profiler7Sampler29platformSuspendVMAndWalkStackEPNS0_16SamplingProfilerE(ptr noundef nonnull align 8 dereferenceable(208) %this, ptr noundef %profiler) local_unnamed_addr #0 align 2 {
entry:
  %0 = ptrtoint ptr %profiler to i64
  store atomic i64 %0, ptr @_ZN6hermes2vm17sampling_profiler12_GLOBAL__N_112SamplerPosix15profilerForSig_E.0 release, align 8
  %currentThread_ = getelementptr inbounds i8, ptr %profiler, i64 256
  %1 = load i64, ptr %currentThread_, align 8
  %call = tail call i32 @pthread_kill(i64 noundef %1, i32 noundef 27) #14
  %samplingDoneSem_ = getelementptr inbounds i8, ptr %this, i64 216
  %call2 = tail call noundef zeroext i1 @_ZN6hermes9Semaphore4waitEv(ptr noundef nonnull align 8 dereferenceable(32) %samplingDoneSem_) #14
  br i1 %call2, label %while.cond, label %return

while.cond:                                       ; preds = %entry, %while.cond
  %2 = load atomic i64, ptr @_ZN6hermes2vm17sampling_profiler12_GLOBAL__N_112SamplerPosix15profilerForSig_E.0 acquire, align 8
  %cmp.not = icmp eq i64 %2, 0
  br i1 %cmp.not, label %return, label %while.cond, !llvm.loop !7

return:                                           ; preds = %while.cond, %entry
  ret i1 %call2
}